; Function Attrs: nounwind uwtable
define void @dt_dev_pixelpipe_disable_after(ptr noundef readonly captures(none) %0, ptr noundef %1) local_unnamed_addr #0 {
  %3 = getelementptr inbounds nuw i8, ptr %0, i64 328
  %4 = load ptr, ptr %3, align 8, !tbaa !171
  %5 = tail call ptr @g_list_last(ptr noundef %4) #27
  br label %6

6:                                                ; preds = %12, %2
  %.09 = phi ptr [ %5, %2 ], [ %15, %12 ]
  %.0 = load ptr, ptr %.09, align 8, !tbaa !86
  %7 = load ptr, ptr %.0, align 16, !tbaa !88
  %8 = getelementptr inbounds nuw i8, ptr %7, i64 944
  %9 = load ptr, ptr %8, align 16, !tbaa !232
  %10 = getelementptr inbounds nuw i8, ptr %9, i64 496
  %11 = tail call i32 @g_strcmp0(ptr noundef nonnull %10, ptr noundef %1) #27
  %.not.i.not = icmp eq i32 %11, 0
  br i1 %.not.i.not, label %16, label %12

12:                                               ; preds = %6
  %13 = getelementptr inbounds nuw i8, ptr %.0, i64 32
  store i32 0, ptr %13, align 16, !tbaa !202
  %14 = getelementptr inbounds nuw i8, ptr %.09, i64 16
  %15 = load ptr, ptr %14, align 8, !tbaa !244
  %.not11 = icmp eq ptr %15, null
  br i1 %.not11, label %16, label %6

16:                                               ; preds = %12, %6
  ret void
}